target datalayout = "e-m:e-p270:32:32-p271:32:32-p272:64:64-i64:64-i128:128-f80:128-n8:16:32:64-S128"
target triple = "x86_64-pc-linux-gnu"

%struct._lv_spinbox_t = type { %struct._lv_textarea_t, i32, i32, i32, i32, i16 }
%struct._lv_textarea_t = type { %struct._lv_obj_t, ptr, ptr, ptr, ptr, ptr, i32, i32, %struct.anon, i32, i32, i8 }
%struct._lv_obj_t = type { ptr, ptr, ptr, ptr, ptr, %struct.lv_area_t, i32, i16, i16 }
%struct.lv_area_t = type { i32, i32, i32, i32 }
%struct.anon = type { i32, i32, %struct.lv_area_t, i32, i8 }

; Function Attrs: nounwind uwtable
define internal void @lv_spinbox_constructor(ptr noundef %0, ptr noundef %1) #0 {
  %3 = alloca ptr, align 8
  %4 = alloca ptr, align 8
  %5 = alloca ptr, align 8
  store ptr %0, ptr %3, align 8, !tbaa !3
  store ptr %1, ptr %4, align 8, !tbaa !3
  br label %6

6:                                                ; preds = %2
  br label %7

7:                                                ; preds = %6
  call void @llvm.lifetime.start.p0(i64 8, ptr %5) #4
  %8 = load ptr, ptr %4, align 8, !tbaa !3
  store ptr %8, ptr %5, align 8, !tbaa !3
  %9 = load ptr, ptr %5, align 8, !tbaa !3
  %10 = getelementptr inbounds nuw %struct._lv_spinbox_t, ptr %9, i32 0, i32 1
  store i32 0, ptr %10, align 8, !tbaa !7
  %11 = load ptr, ptr %5, align 8, !tbaa !3
  %12 = getelementptr inbounds nuw %struct._lv_spinbox_t, ptr %11, i32 0, i32 5
  %13 = load i16, ptr %12, align 8
  %14 = and i16 %13, -241
  %15 = or i16 %14, 0
  store i16 %15, ptr %12, align 8
  %16 = load ptr, ptr %5, align 8, !tbaa !3
  %17 = getelementptr inbounds nuw %struct._lv_spinbox_t, ptr %16, i32 0, i32 5
  %18 = load i16, ptr %17, align 8
  %19 = and i16 %18, -16
  %20 = or i16 %19, 5
  store i16 %20, ptr %17, align 8
  %21 = load ptr, ptr %5, align 8, !tbaa !3
  %22 = getelementptr inbounds nuw %struct._lv_spinbox_t, ptr %21, i32 0, i32 4
  store i32 1, ptr %22, align 4, !tbaa !15
  %23 = load ptr, ptr %5, align 8, !tbaa !3
  %24 = getelementptr inbounds nuw %struct._lv_spinbox_t, ptr %23, i32 0, i32 2
  store i32 99999, ptr %24, align 4, !tbaa !16
  %25 = load ptr, ptr %5, align 8, !tbaa !3
  %26 = getelementptr inbounds nuw %struct._lv_spinbox_t, ptr %25, i32 0, i32 3
  store i32 -99999, ptr %26, align 8, !tbaa !17
  %27 = load ptr, ptr %5, align 8, !tbaa !3
  %28 = getelementptr inbounds nuw %struct._lv_spinbox_t, ptr %27, i32 0, i32 5
  %29 = load i16, ptr %28, align 8
  %30 = and i16 %29, -257
  %31 = or i16 %30, 0
  store i16 %31, ptr %28, align 8
  %32 = load ptr, ptr %5, align 8, !tbaa !3
  %33 = getelementptr inbounds nuw %struct._lv_spinbox_t, ptr %32, i32 0, i32 5
  %34 = load i16, ptr %33, align 8
  %35 = and i16 %34, -1537
  %36 = or i16 %35, 1024
  store i16 %36, ptr %33, align 8
  %37 = load ptr, ptr %4, align 8, !tbaa !3
  call void @lv_textarea_set_one_line(ptr noundef %37, i1 noundef zeroext true)
  %38 = load ptr, ptr %4, align 8, !tbaa !3
  call void @lv_textarea_set_cursor_click_pos(ptr noundef %38, i1 noundef zeroext true)
  %39 = load ptr, ptr %4, align 8, !tbaa !3
  call void @lv_spinbox_updatevalue(ptr noundef %39)
  br label %40

40:                                               ; preds = %7
  br label %41

41:                                               ; preds = %40
  br label %42

42:                                               ; preds = %41
  call void @llvm.lifetime.end.p0(i64 8, ptr %5) #4
  ret void
}