; Function Attrs: nounwind uwtable
define internal void @lv_spinbox_constructor(ptr nocapture readnone %0, ptr noundef %1) #0 {
  %3 = getelementptr inbounds nuw i8, ptr %1, i64 160
  store i32 0, ptr %3, align 8, !tbaa !3
  %4 = getelementptr inbounds nuw i8, ptr %1, i64 176
  %5 = load i16, ptr %4, align 8
  %6 = getelementptr inbounds nuw i8, ptr %1, i64 172
  store i32 1, ptr %6, align 4, !tbaa !14
  %7 = getelementptr inbounds nuw i8, ptr %1, i64 164
  store i32 99999, ptr %7, align 4, !tbaa !15
  %8 = getelementptr inbounds nuw i8, ptr %1, i64 168
  store i32 -99999, ptr %8, align 8, !tbaa !16
  %9 = and i16 %5, -2048
  %10 = or disjoint i16 %9, 1029
  store i16 %10, ptr %4, align 8
  tail call void @lv_textarea_set_one_line(ptr noundef %1, i1 noundef zeroext true) #7
  tail call void @lv_textarea_set_cursor_click_pos(ptr noundef %1, i1 noundef zeroext true) #7
  tail call fastcc void @lv_spinbox_updatevalue(ptr noundef %1)
  ret void
}